; Function Attrs: mustprogress uwtable
define noundef nonnull align 8 dereferenceable(72) ptr @_ZN12colvarmodule11write_stateERNS_13memory_streamE(ptr noundef nonnull align 8 dereferenceable(616) %0, ptr noundef nonnull returned align 8 dereferenceable(72) %1) local_unnamed_addr #3 align 2 {
  %3 = tail call noundef zeroext i1 @_ZN12colvarmodule13memory_stream20expand_output_bufferEm(ptr noundef nonnull align 8 dereferenceable(72) %1, i64 noundef 4)
  br i1 %3, label %4, label %_ZlsIjERN12colvarmodule13memory_streamES2_RKT_.exit

4:                                                ; preds = %2
  %5 = load ptr, ptr %1, align 8
  %.not.i.i.i.i = icmp eq ptr %5, null
  %6 = getelementptr inbounds i8, ptr %1, i64 16
  %.in.i.i.i.i = select i1 %.not.i.i.i.i, ptr %6, ptr %5
  %7 = load ptr, ptr %.in.i.i.i.i, align 8
  %8 = getelementptr inbounds i8, ptr %1, i64 40
  %9 = load i64, ptr %8, align 8
  %10 = getelementptr inbounds i8, ptr %7, i64 %9
  store i32 2013813594, ptr %10, align 1
  %11 = load i64, ptr %8, align 8
  %12 = add i64 %11, 4
  store i64 %12, ptr %8, align 8
  br label %_ZlsIjERN12colvarmodule13memory_streamES2_RKT_.exit

_ZlsIjERN12colvarmodule13memory_streamES2_RKT_.exit: ; preds = %2, %4
  %13 = getelementptr inbounds i8, ptr %1, i64 56
  %14 = load i32, ptr %13, align 8
  %15 = icmp eq i32 %14, 0
  br i1 %15, label %16, label %18

16:                                               ; preds = %_ZlsIjERN12colvarmodule13memory_streamES2_RKT_.exit
  %17 = tail call noundef nonnull align 8 dereferenceable(72) ptr @_ZN12colvarmodule21write_state_template_INS_13memory_streamEEERT_S3_(ptr noundef nonnull align 8 dereferenceable(616) %0, ptr noundef nonnull align 8 dereferenceable(72) %1)
  br label %18

18:                                               ; preds = %16, %_ZlsIjERN12colvarmodule13memory_streamES2_RKT_.exit
  ret ptr %1
}